; Function Attrs: nounwind uwtable
define zeroext i8 @l_Lean_Server_FileWorker_beqAbsoluteLspSemanticToken____x40_Lean_Server_FileWorker_SemanticHighlighting___hyg_96_(ptr noundef readonly captures(none) %0, ptr noundef readonly captures(none) %1) local_unnamed_addr #0 {
  %3 = getelementptr inbounds nuw i8, ptr %0, i64 8
  %4 = load ptr, ptr %3, align 8, !tbaa !11
  %5 = getelementptr inbounds nuw i8, ptr %0, i64 16
  %6 = load ptr, ptr %5, align 8, !tbaa !11
  %7 = getelementptr inbounds nuw i8, ptr %0, i64 24
  %8 = load i8, ptr %7, align 1, !tbaa !13
  %9 = getelementptr inbounds nuw i8, ptr %1, i64 8
  %10 = load ptr, ptr %9, align 8, !tbaa !11
  %11 = getelementptr inbounds nuw i8, ptr %1, i64 16
  %12 = load ptr, ptr %11, align 8, !tbaa !11
  %13 = getelementptr inbounds nuw i8, ptr %1, i64 24
  %14 = load i8, ptr %13, align 1, !tbaa !13
  %15 = tail call zeroext i8 @l_Lean_Lsp_beqPosition____x40_Lean_Data_Lsp_Basic___hyg_41_(ptr noundef %4, ptr noundef %10) #7
  %16 = icmp eq i8 %15, 0
  br i1 %16, label %22, label %17

17:                                               ; preds = %2
  %18 = tail call zeroext i8 @l_Lean_Lsp_beqPosition____x40_Lean_Data_Lsp_Basic___hyg_41_(ptr noundef %6, ptr noundef %12) #7
  %19 = icmp eq i8 %18, 0
  br i1 %19, label %22, label %20

20:                                               ; preds = %17
  %21 = tail call zeroext i8 @l_Lean_Lsp_beqSemanticTokenType____x40_Lean_Data_Lsp_LanguageFeatures___hyg_8921_(i8 noundef zeroext %8, i8 noundef zeroext %14) #7
  br label %22

22:                                               ; preds = %20, %17, %2
  %.0 = phi i8 [ 0, %2 ], [ %21, %20 ], [ 0, %17 ]
  ret i8 %.0
}